; Function Attrs: nounwind uwtable
define noundef ptr @Abc_NodeMffcInsideCollect(ptr noundef %0) local_unnamed_addr #0 {
  %2 = tail call i32 @Abc_NodeDeref_rec(ptr noundef %0)
  %3 = tail call noalias dereferenceable_or_null(16) ptr @malloc(i64 noundef 16) #9
  %4 = getelementptr inbounds nuw i8, ptr %3, i64 4
  store i32 10, ptr %3, align 8
  %5 = tail call noalias dereferenceable_or_null(80) ptr @malloc(i64 noundef 80) #9
  %6 = getelementptr inbounds nuw i8, ptr %3, i64 8
  store ptr %5, ptr %6, align 8
  store i32 0, ptr %4, align 4
  %7 = load ptr, ptr %0, align 8
  %8 = getelementptr inbounds nuw i8, ptr %7, i64 232
  %9 = load ptr, ptr %8, align 8
  %.not.i.i = icmp eq ptr %9, null
  br i1 %.not.i.i, label %10, label %Abc_NodeMffcConeSupp.exit

10:                                               ; preds = %1
  %11 = getelementptr inbounds nuw i8, ptr %7, i64 224
  %12 = getelementptr i8, ptr %7, i64 32
  %.val.i.i = load ptr, ptr %12, align 8
  %13 = getelementptr i8, ptr %.val.i.i, i64 4
  %.val.val.i.i = load i32, ptr %13, align 4
  %14 = add nsw i32 %.val.val.i.i, 500
  %15 = load i32, ptr %11, align 8
  %.not.i.i.i.i = icmp slt i32 %15, %14
  br i1 %.not.i.i.i.i, label %16, label %Vec_IntGrow.exit.i.i.i

16:                                               ; preds = %10
  %17 = sext i32 %14 to i64
  %18 = shl nsw i64 %17, 2
  %19 = tail call noalias ptr @malloc(i64 noundef %18) #9
  store ptr %19, ptr %8, align 8
  store i32 %14, ptr %11, align 8
  br label %Vec_IntGrow.exit.i.i.i

Vec_IntGrow.exit.i.i.i:                           ; preds = %16, %10
  %20 = icmp sgt i32 %.val.val.i.i, -500
  br i1 %20, label %.lr.ph.i.i.i, label %Abc_NtkIncrementTravId.exit.sink.split.i

.lr.ph.i.i.i:                                     ; preds = %Vec_IntGrow.exit.i.i.i
  %wide.trip.count.i.i.i = zext nneg i32 %14 to i64
  br label %21

21:                                               ; preds = %21, %.lr.ph.i.i.i
  %indvars.iv.i.i.i = phi i64 [ 0, %.lr.ph.i.i.i ], [ %indvars.iv.next.i.i.i, %21 ]
  %22 = load ptr, ptr %8, align 8
  %23 = getelementptr inbounds nuw i32, ptr %22, i64 %indvars.iv.i.i.i
  store i32 0, ptr %23, align 4
  %indvars.iv.next.i.i.i = add nuw nsw i64 %indvars.iv.i.i.i, 1
  %exitcond.not.i.i.i = icmp eq i64 %indvars.iv.next.i.i.i, %wide.trip.count.i.i.i
  br i1 %exitcond.not.i.i.i, label %Abc_NtkIncrementTravId.exit.sink.split.i, label %21, !llvm.loop !8

Abc_NtkIncrementTravId.exit.sink.split.i:         ; preds = %21, %Vec_IntGrow.exit.i.i.i
  %24 = getelementptr inbounds nuw i8, ptr %7, i64 228
  store i32 %14, ptr %24, align 4
  br label %Abc_NodeMffcConeSupp.exit

Abc_NodeMffcConeSupp.exit:                        ; preds = %1, %Abc_NtkIncrementTravId.exit.sink.split.i
  %25 = getelementptr inbounds nuw i8, ptr %7, i64 216
  %26 = load i32, ptr %25, align 8
  %27 = add nsw i32 %26, 1
  store i32 %27, ptr %25, align 8
  tail call void @Abc_NodeMffcConeSupp_rec(ptr noundef nonnull %0, ptr noundef nonnull %3, ptr noundef null, i32 noundef 1)
  %28 = tail call i32 @Abc_NodeRef_rec(ptr noundef nonnull %0)
  ret ptr %3
}